Certificate:
    Data:
        Version: 3 (0x2)
        Serial Number: 4096 (0x1000)
        Signature Algorithm: md5WithRSAEncryption
        Issuer: C=US, ST=Utah, L=Bountiful, O=MSD, OU=CS6014, CN=Rylie/emailAddress=rylienbyers@gmail.com
        Validity
            Not Before: Apr 10 05:43:56 2024 GMT
            Not After : Apr 10 05:43:56 2025 GMT
        Subject: C=US, ST=Utah, O=MSD, OU=CS6014, CN=Rylie/emailAddress=rylienbyers@gmail.com
        Subject Public Key Info:
            Public Key Algorithm: rsaEncryption
                Public-Key: (4096 bit)
                Modulus:
                    00:8e:51:ce:f1:b7:bb:de:5a:18:24:1c:1a:43:a7:
                    cc:7d:45:05:3e:68:ab:4f:be:44:21:ac:43:52:c1:
                    47:f2:b2:c0:40:8b:dd:7f:99:61:c6:81:85:fb:1a:
                    e5:68:40:cf:a9:06:4a:e9:57:58:2d:da:1b:0f:4c:
                    84:a1:c8:8e:a1:9c:3b:4e:99:30:8c:bc:e8:ef:c6:
                    b1:58:42:22:3b:1e:74:23:0e:5f:98:4f:f5:df:b2:
                    0e:4d:d8:b9:f0:a8:ea:3a:f1:3d:e5:a1:eb:c0:22:
                    d0:86:d5:ee:1c:07:e5:6e:20:2f:91:08:6b:ef:fb:
                    01:5f:d8:a7:7a:76:bd:a5:ea:7d:4a:c3:2d:09:da:
                    f3:eb:b1:c7:2c:04:5d:96:2b:d1:0e:3a:80:d9:59:
                    aa:36:ef:78:d0:05:9e:56:7b:0f:80:78:a8:2f:28:
                    ee:83:40:39:da:ee:7d:4c:0d:7b:6a:10:7e:37:51:
                    c7:92:dc:dc:4c:6c:ea:e8:33:66:da:76:94:d9:81:
                    fd:7c:66:7c:4f:9a:a8:a0:0b:4c:64:7d:a7:bd:d2:
                    79:f5:63:04:da:78:2d:ad:dc:ab:0e:de:ec:25:df:
                    fa:6c:f4:dd:b3:e9:fc:d3:58:0c:de:d4:66:0f:bf:
                    b8:42:e2:d7:2f:57:bc:0e:79:08:88:90:1f:25:0b:
                    b8:f3:6b:ee:23:f4:80:c1:f8:cc:1f:13:c4:6b:96:
                    61:96:65:41:e1:7f:33:b2:fc:49:0d:68:be:87:32:
                    a1:86:af:f3:dd:90:03:8b:f9:da:34:9c:ee:52:2e:
                    6b:7c:51:45:e2:60:2d:57:92:43:fe:ae:1c:5e:de:
                    e5:0e:cf:c0:39:16:5e:b2:1d:98:ae:d1:5c:a1:eb:
                    b9:62:a6:23:0d:f8:d1:8b:21:89:a2:5d:b3:5e:d4:
                    8f:bc:b2:8e:77:5a:86:e2:e3:32:51:b8:49:47:6b:
                    bb:28:e9:0a:bd:b3:49:3e:de:b0:8b:93:f9:d8:15:
                    8c:c2:b9:f2:1b:ba:84:92:1f:55:3c:0c:92:8f:bd:
                    18:82:81:c6:4e:46:40:ab:27:9e:8a:ef:04:29:f8:
                    62:7b:e3:4d:22:bf:20:b9:20:54:37:29:2f:37:93:
                    71:93:21:0c:b0:25:5e:77:89:94:54:26:3c:a8:14:
                    9f:8e:d1:a2:09:46:5d:fd:0d:aa:78:f6:ff:76:ad:
                    36:df:e7:52:e3:81:61:7c:95:14:35:46:0c:c5:a1:
                    a1:25:4b:44:c3:c2:db:28:ce:4e:2e:0c:98:50:cb:
                    55:0e:ae:44:52:00:53:41:6d:8f:09:3e:07:7b:96:
                    07:ff:36:39:a9:58:36:36:22:11:d0:c7:3f:c3:fc:
                    de:8d:e5
                Exponent: 65537 (0x10001)
        X509v3 extensions:
            X509v3 Basic Constraints: 
                CA:FALSE
            Netscape Comment: 
                OpenSSL Generated Certificate
            X509v3 Subject Key Identifier: 
                71:99:2A:6D:99:DE:D7:CB:56:E3:CB:9C:A4:EF:54:20:AA:F4:57:D3
            X509v3 Authority Key Identifier: 
                keyid:FA:B9:AA:E3:6A:48:39:6A:17:D8:8F:C1:ED:64:1E:C2:F8:E3:AF:43
                DirName:/C=US/ST=Utah/L=Bountiful/O=MSD/OU=CS6014/CN=Rylie/emailAddress=rylienbyers@gmail.com
                serial:41:ED:72:5C:3D:4A:FC:1D:41:9E:C7:FA:B2:A5:66:56:C8:BD:46:E5
    Signature Algorithm: md5WithRSAEncryption
    Signature Value:
        07:48:21:96:16:2c:58:18:f6:ee:50:46:ed:9e:6d:d4:6d:0d:
        be:7e:ab:aa:44:ba:ce:3c:12:77:85:0f:48:db:35:f8:79:fb:
        06:4f:5a:b4:08:8b:06:70:70:50:71:61:d9:84:1d:e5:b6:72:
        44:12:ea:8e:0d:27:c2:f4:fa:d9:cd:9c:43:0a:ae:1a:0e:3b:
        d7:f4:6f:21:6a:36:95:44:1d:68:04:99:ad:a0:83:d8:ad:d0:
        f6:b9:9b:f5:68:a4:bf:91:0e:4b:e6:dc:f5:83:32:16:7d:0d:
        2e:1b:48:c5:c6:b4:6b:02:fe:35:e4:7e:b9:21:4a:b4:a8:4e:
        d9:bb:b3:36:96:7f:09:8d:52:b8:80:0f:84:7d:bc:af:59:65:
        00:0f:79:e6:46:34:24:f4:10:03:e0:00:cb:0d:9f:bc:47:40:
        d0:b7:44:32:a0:16:18:e4:a2:2f:80:52:fb:b1:96:0e:a6:e0:
        cd:e7:f2:58:77:c9:9e:2b:d1:95:f8:c6:b6:12:2e:a2:65:5c:
        14:ae:62:77:0f:ec:7e:6c:bc:62:b5:fd:de:ce:e2:ea:88:ff:
        b8:f2:fa:c7:77:96:21:bc:1e:0e:6e:27:64:80:03:16:00:54:
        45:88:4d:af:9f:4a:46:74:c2:34:91:2c:69:18:8c:2c:fe:38:
        93:3f:dd:46:ba:ae:57:cf:5a:bb:d0:2c:ac:c9:e2:9d:30:7d:
        99:ed:d3:39:d7:0a:db:6a:f2:56:71:1c:23:41:f1:0a:d4:c9:
        de:b2:bc:d7:e3:6f:4f:fa:6c:c8:2a:19:86:a2:90:13:10:dd:
        f4:d6:a3:24:b6:52:d4:ff:cb:23:8f:af:43:8f:eb:66:2e:20:
        fd:66:10:5b:cd:02:3a:7c:2c:5d:16:89:66:5a:b8:05:91:c5:
        a0:68:1c:f4:08:c5:26:59:fe:24:77:c0:59:60:dc:35:b1:a5:
        7c:4a:41:ef:44:5c:e7:ed:4f:41:5e:a0:5a:30:27:2e:85:d5:
        75:79:c4:db:e1:34:23:65:19:c1:3b:12:f9:41:4c:3d:02:76:
        99:3c:e0:29:2f:3b:e7:52:d2:74:75:2a:99:24:61:6a:9b:f7:
        b6:36:af:2f:d8:51:48:6f:25:40:d8:86:2c:9c:dd:2e:6a:23:
        cf:c9:ad:23:7e:0f:87:a6:7d:ec:b2:b8:14:69:09:c9:4f:56:
        17:bb:9f:0b:48:58:6a:01:79:57:55:c8:36:bd:87:24:26:da:
        7a:cf:43:cb:95:93:f8:50:66:85:50:0d:51:6b:71:66:5e:b2:
        35:e8:23:34:16:6f:49:8b:39:7c:11:d4:9f:00:3b:4f:00:f4:
        0c:4b:fd:7f:21:58:a7:28
-----BEGIN CERTIFICATE-----
MIIGmTCCBIGgAwIBAgICEAAwDQYJKoZIhvcNAQEEBQAwgYUxCzAJBgNVBAYTAlVT
MQ0wCwYDVQQIDARVdGFoMRIwEAYDVQQHDAlCb3VudGlmdWwxDDAKBgNVBAoMA01T
RDEPMA0GA1UECwwGQ1M2MDE0MQ4wDAYDVQQDDAVSeWxpZTEkMCIGCSqGSIb3DQEJ
ARYVcnlsaWVuYnllcnNAZ21haWwuY29tMB4XDTI0MDQxMDA1NDM1NloXDTI1MDQx
MDA1NDM1NlowcTELMAkGA1UEBhMCVVMxDTALBgNVBAgMBFV0YWgxDDAKBgNVBAoM
A01TRDEPMA0GA1UECwwGQ1M2MDE0MQ4wDAYDVQQDDAVSeWxpZTEkMCIGCSqGSIb3
DQEJARYVcnlsaWVuYnllcnNAZ21haWwuY29tMIICIjANBgkqhkiG9w0BAQEFAAOC
Ag8AMIICCgKCAgEAjlHO8be73loYJBwaQ6fMfUUFPmirT75EIaxDUsFH8rLAQIvd
f5lhxoGF+xrlaEDPqQZK6VdYLdobD0yEociOoZw7TpkwjLzo78axWEIiOx50Iw5f
mE/137IOTdi58KjqOvE95aHrwCLQhtXuHAflbiAvkQhr7/sBX9inena9pep9SsMt
Cdrz67HHLARdlivRDjqA2VmqNu940AWeVnsPgHioLyjug0A52u59TA17ahB+N1HH
ktzcTGzq6DNm2naU2YH9fGZ8T5qooAtMZH2nvdJ59WME2ngtrdyrDt7sJd/6bPTd
s+n801gM3tRmD7+4QuLXL1e8DnkIiJAfJQu482vuI/SAwfjMHxPEa5ZhlmVB4X8z
svxJDWi+hzKhhq/z3ZADi/naNJzuUi5rfFFF4mAtV5JD/q4cXt7lDs/AORZesh2Y
rtFcoeu5YqYjDfjRiyGJol2zXtSPvLKOd1qG4uMyUbhJR2u7KOkKvbNJPt6wi5P5
2BWMwrnyG7qEkh9VPAySj70YgoHGTkZAqyeeiu8EKfhie+NNIr8guSBUNykvN5Nx
kyEMsCVed4mUVCY8qBSfjtGiCUZd/Q2qePb/dq023+dS44FhfJUUNUYMxaGhJUtE
w8LbKM5OLgyYUMtVDq5EUgBTQW2PCT4He5YH/zY5qVg2NiIR0Mc/w/zejeUCAwEA
AaOCASQwggEgMAkGA1UdEwQCMAAwLAYJYIZIAYb4QgENBB8WHU9wZW5TU0wgR2Vu
ZXJhdGVkIENlcnRpZmljYXRlMB0GA1UdDgQWBBRxmSptmd7Xy1bjy5yk71QgqvRX
0zCBxQYDVR0jBIG9MIG6gBT6uarjakg5ahfYj8HtZB7C+OOvQ6GBi6SBiDCBhTEL
MAkGA1UEBhMCVVMxDTALBgNVBAgMBFV0YWgxEjAQBgNVBAcMCUJvdW50aWZ1bDEM
MAoGA1UECgwDTVNEMQ8wDQYDVQQLDAZDUzYwMTQxDjAMBgNVBAMMBVJ5bGllMSQw
IgYJKoZIhvcNAQkBFhVyeWxpZW5ieWVyc0BnbWFpbC5jb22CFEHtclw9SvwdQZ7H
+rKlZlbIvUblMA0GCSqGSIb3DQEBBAUAA4ICAQAHSCGWFixYGPbuUEbtnm3UbQ2+
fquqRLrOPBJ3hQ9I2zX4efsGT1q0CIsGcHBQcWHZhB3ltnJEEuqODSfC9PrZzZxD
Cq4aDjvX9G8hajaVRB1oBJmtoIPYrdD2uZv1aKS/kQ5L5tz1gzIWfQ0uG0jFxrRr
Av415H65IUq0qE7Zu7M2ln8JjVK4gA+EfbyvWWUAD3nmRjQk9BAD4ADLDZ+8R0DQ
t0QyoBYY5KIvgFL7sZYOpuDN5/JYd8meK9GV+Ma2Ei6iZVwUrmJ3D+x+bLxitf3e
zuLqiP+48vrHd5YhvB4ObidkgAMWAFRFiE2vn0pGdMI0kSxpGIws/jiTP91Guq5X
z1q70CysyeKdMH2Z7dM51wrbavJWcRwjQfEK1MnesrzX429P+mzIKhmGopATEN30
1qMktlLU/8sjj69Dj+tmLiD9ZhBbzQI6fCxdFolmWrgFkcWgaBz0CMUmWf4kd8BZ
YNw1saV8SkHvRFzn7U9BXqBaMCcuhdV1ecTb4TQjZRnBOxL5QUw9AnaZPOApLzvn
UtJ0dSqZJGFqm/e2Nq8v2FFIbyVA2IYsnN0uaiPPya0jfg+Hpn3ssrgUaQnJT1YX
u58LSFhqAXlXVcg2vYckJtp6z0PLlZP4UGaFUA1Ra3FmXrI16CM0Fm9Jizl8EdSf
ADtPAPQMS/1/IVinKA==
-----END CERTIFICATE-----
