Certificate:
    Data:
        Version: 3 (0x2)
        Serial Number: 4097 (0x1001)
        Signature Algorithm: md5WithRSAEncryption
        Issuer: C=US, ST=Utah, L=Bountiful, O=MSD, OU=CS6014, CN=Rylie/emailAddress=rylienbyers@gmail.com
        Validity
            Not Before: Apr 10 17:53:19 2024 GMT
            Not After : Apr 10 17:53:19 2025 GMT
        Subject: C=US, ST=Utah, O=MSD, OU=CS6014, CN=Rylie/emailAddress=rylienbyers@gmail.com
        Subject Public Key Info:
            Public Key Algorithm: rsaEncryption
                Public-Key: (4096 bit)
                Modulus:
                    00:ab:8b:65:55:c3:33:69:20:34:c2:ca:0d:eb:78:
                    52:c6:73:3a:83:10:50:36:fa:7b:53:93:d5:5b:39:
                    bc:82:33:21:02:8c:0a:b6:e1:b0:1f:cd:80:28:c0:
                    39:a7:f2:b7:f2:a2:f6:2b:c9:18:0e:7d:be:a5:e6:
                    05:b1:8b:8d:78:88:33:06:83:fb:c3:5b:5b:63:ba:
                    85:49:3d:6e:39:bb:4f:e3:5d:75:7f:5f:a3:2c:3f:
                    ca:ac:29:30:91:d4:cc:11:a7:eb:07:84:81:6c:d8:
                    f2:ed:d4:7a:e1:de:55:b0:1f:7b:b6:13:d0:9c:86:
                    e4:65:79:ac:57:b2:e5:81:75:d9:b0:8f:1c:a6:ed:
                    e6:01:e0:c6:a1:bc:6c:29:b1:fb:80:ec:84:f4:55:
                    7d:ae:10:c7:24:d9:15:1a:9b:05:77:ad:d9:ab:6d:
                    a0:04:69:6e:1c:5d:3e:1d:c9:06:fb:4d:4e:a1:22:
                    02:bb:1c:60:6c:23:de:32:a7:30:e8:43:60:6d:fa:
                    f1:b8:27:2b:4d:4e:b6:57:97:ff:22:1c:3e:35:56:
                    18:7e:4c:d1:66:4e:43:61:5e:e7:db:6e:b1:27:57:
                    d9:05:0c:7d:cf:46:56:cf:82:68:b2:74:e4:ff:de:
                    d3:c0:85:93:c1:83:29:69:16:90:5b:96:00:ff:ad:
                    b7:ef:98:b8:3e:d6:26:42:1c:33:7a:08:8f:c8:09:
                    c4:65:85:76:75:98:ab:55:3c:48:25:b7:24:f4:45:
                    5d:be:bc:9a:b2:25:3c:8c:5e:2f:95:d3:cb:19:1e:
                    4c:3a:fc:2d:9e:39:52:c9:14:db:89:64:9a:fc:72:
                    d5:44:19:10:2d:a5:c5:d8:14:eb:c3:6d:24:f4:95:
                    5d:ae:79:22:f9:96:77:f5:e7:2a:75:30:17:1d:a1:
                    4c:8b:d7:4f:ae:af:59:c5:1d:7c:cd:a0:48:27:72:
                    3e:8b:fb:0c:63:60:3f:30:8e:6b:2f:34:0c:0a:56:
                    38:b9:8d:1c:a9:fa:40:03:8e:03:ef:96:10:6c:e6:
                    95:32:91:50:e7:bd:dc:14:5e:c7:92:ab:28:4d:1b:
                    66:4d:33:c3:e7:95:35:2b:af:a8:ab:53:1a:4b:f3:
                    33:48:0a:e0:cc:b6:54:54:95:de:13:f2:c3:cc:b9:
                    c9:a2:3a:02:60:92:48:5d:ea:7c:1a:2f:af:e5:3b:
                    85:8e:48:8f:1e:4b:3b:3a:9e:1e:78:e4:be:e3:81:
                    53:2c:04:be:df:bb:5a:2e:a2:fc:de:67:f5:78:42:
                    5e:69:50:e6:15:6c:8e:3e:a1:0d:27:fc:6d:4a:c3:
                    bc:ec:07:60:cd:62:c8:52:cb:a9:fd:fb:bd:18:b1:
                    4d:18:7f
                Exponent: 65537 (0x10001)
        X509v3 extensions:
            X509v3 Basic Constraints: 
                CA:FALSE
            Netscape Comment: 
                OpenSSL Generated Certificate
            X509v3 Subject Key Identifier: 
                49:8A:80:7C:00:5E:0E:E0:81:8D:32:4A:CD:D7:43:1D:09:76:16:17
            X509v3 Authority Key Identifier: 
                keyid:FA:B9:AA:E3:6A:48:39:6A:17:D8:8F:C1:ED:64:1E:C2:F8:E3:AF:43
                DirName:/C=US/ST=Utah/L=Bountiful/O=MSD/OU=CS6014/CN=Rylie/emailAddress=rylienbyers@gmail.com
                serial:41:ED:72:5C:3D:4A:FC:1D:41:9E:C7:FA:B2:A5:66:56:C8:BD:46:E5
    Signature Algorithm: md5WithRSAEncryption
    Signature Value:
        95:1e:9c:ec:dc:c4:3d:aa:3e:17:63:39:ca:03:28:a9:ff:04:
        04:f6:3d:1f:3e:07:5b:eb:2e:22:3b:45:0e:2b:d8:e9:98:a8:
        c8:97:e6:2e:57:44:f0:77:01:67:c9:bc:eb:c0:89:bc:fd:4e:
        d7:3a:42:f2:b2:52:28:79:50:fb:18:5f:54:57:57:53:cd:d9:
        61:5c:48:0b:25:1d:ee:a5:93:5e:c3:f4:cb:65:58:53:42:b2:
        a8:af:c8:cc:ac:c9:29:19:61:42:83:a7:2d:ef:2a:ab:85:5c:
        48:19:7a:83:03:9c:fd:13:ed:d4:2b:e9:ea:6b:6e:c1:65:9e:
        db:19:40:38:b5:5e:bf:64:f1:2d:7e:73:7f:af:f7:f2:cb:da:
        1a:29:f6:6f:96:a2:24:a1:52:02:ef:42:b9:53:f3:69:49:67:
        03:57:7f:92:cf:13:74:10:dc:22:25:71:a7:37:7c:31:d8:ab:
        ba:25:82:68:ec:fa:23:92:4a:f8:ea:a7:2d:e1:fc:9d:c3:e5:
        a9:2e:cb:45:be:95:69:6d:0d:b2:31:ac:a9:54:a4:02:7a:19:
        15:e5:0b:f5:19:d8:bb:9d:3d:e9:64:80:f2:f7:e3:dc:40:02:
        a0:b6:d0:96:ad:7b:76:2e:43:35:51:73:ee:43:08:f2:11:98:
        1a:29:66:e7:bf:a7:01:af:20:e5:9d:f0:79:b7:26:55:4e:50:
        a0:76:b2:1e:a1:ef:61:7f:20:2d:0c:8e:21:cb:12:c7:40:9e:
        ab:21:3e:16:56:0c:57:ea:57:dd:75:8b:f0:e9:06:57:39:dc:
        de:f7:d0:e1:87:49:06:d1:9b:60:3a:3a:e1:8e:c3:3c:fd:65:
        d7:45:fc:b5:88:9f:4e:b8:d5:5d:5a:28:c9:1e:5f:94:ec:1c:
        e2:15:60:92:14:18:15:1f:b2:c0:5b:df:2f:bd:df:ee:ca:be:
        4c:88:68:ae:47:2d:e0:d5:0c:1d:9e:fb:d5:00:c0:68:9f:31:
        9e:71:67:c9:2d:3b:81:a9:29:b9:9c:9f:62:45:a0:7e:3b:48:
        c6:9b:65:7c:23:4a:d7:5c:eb:72:80:26:e3:c5:7b:42:89:62:
        94:d2:31:48:1a:5e:8a:05:f7:51:27:79:1f:48:78:8e:5e:f3:
        3b:57:fd:b3:b3:d9:41:c6:58:a0:d8:f2:56:63:d2:e7:27:db:
        fc:f5:fd:ca:48:df:e1:1c:06:44:3e:f4:e2:cb:7e:78:8e:3b:
        2f:20:a8:16:15:77:ab:b2:31:42:ae:06:f4:c2:fa:e3:a1:c7:
        4d:cf:58:d0:f5:ad:58:03:0e:08:3d:86:cf:4c:94:b5:bf:21:
        d7:4b:4b:dc:2b:ed:43:8d
-----BEGIN CERTIFICATE-----
MIIGmTCCBIGgAwIBAgICEAEwDQYJKoZIhvcNAQEEBQAwgYUxCzAJBgNVBAYTAlVT
MQ0wCwYDVQQIDARVdGFoMRIwEAYDVQQHDAlCb3VudGlmdWwxDDAKBgNVBAoMA01T
RDEPMA0GA1UECwwGQ1M2MDE0MQ4wDAYDVQQDDAVSeWxpZTEkMCIGCSqGSIb3DQEJ
ARYVcnlsaWVuYnllcnNAZ21haWwuY29tMB4XDTI0MDQxMDE3NTMxOVoXDTI1MDQx
MDE3NTMxOVowcTELMAkGA1UEBhMCVVMxDTALBgNVBAgMBFV0YWgxDDAKBgNVBAoM
A01TRDEPMA0GA1UECwwGQ1M2MDE0MQ4wDAYDVQQDDAVSeWxpZTEkMCIGCSqGSIb3
DQEJARYVcnlsaWVuYnllcnNAZ21haWwuY29tMIICIjANBgkqhkiG9w0BAQEFAAOC
Ag8AMIICCgKCAgEAq4tlVcMzaSA0wsoN63hSxnM6gxBQNvp7U5PVWzm8gjMhAowK
tuGwH82AKMA5p/K38qL2K8kYDn2+peYFsYuNeIgzBoP7w1tbY7qFST1uObtP4111
f1+jLD/KrCkwkdTMEafrB4SBbNjy7dR64d5VsB97thPQnIbkZXmsV7LlgXXZsI8c
pu3mAeDGobxsKbH7gOyE9FV9rhDHJNkVGpsFd63Zq22gBGluHF0+HckG+01OoSIC
uxxgbCPeMqcw6ENgbfrxuCcrTU62V5f/Ihw+NVYYfkzRZk5DYV7n226xJ1fZBQx9
z0ZWz4JosnTk/97TwIWTwYMpaRaQW5YA/62375i4PtYmQhwzegiPyAnEZYV2dZir
VTxIJbck9EVdvryasiU8jF4vldPLGR5MOvwtnjlSyRTbiWSa/HLVRBkQLaXF2BTr
w20k9JVdrnki+ZZ39ecqdTAXHaFMi9dPrq9ZxR18zaBIJ3I+i/sMY2A/MI5rLzQM
ClY4uY0cqfpAA44D75YQbOaVMpFQ573cFF7HkqsoTRtmTTPD55U1K6+oq1MaS/Mz
SArgzLZUVJXeE/LDzLnJojoCYJJIXep8Gi+v5TuFjkiPHks7Op4eeOS+44FTLAS+
37taLqL83mf1eEJeaVDmFWyOPqENJ/xtSsO87AdgzWLIUsup/fu9GLFNGH8CAwEA
AaOCASQwggEgMAkGA1UdEwQCMAAwLAYJYIZIAYb4QgENBB8WHU9wZW5TU0wgR2Vu
ZXJhdGVkIENlcnRpZmljYXRlMB0GA1UdDgQWBBRJioB8AF4O4IGNMkrN10MdCXYW
FzCBxQYDVR0jBIG9MIG6gBT6uarjakg5ahfYj8HtZB7C+OOvQ6GBi6SBiDCBhTEL
MAkGA1UEBhMCVVMxDTALBgNVBAgMBFV0YWgxEjAQBgNVBAcMCUJvdW50aWZ1bDEM
MAoGA1UECgwDTVNEMQ8wDQYDVQQLDAZDUzYwMTQxDjAMBgNVBAMMBVJ5bGllMSQw
IgYJKoZIhvcNAQkBFhVyeWxpZW5ieWVyc0BnbWFpbC5jb22CFEHtclw9SvwdQZ7H
+rKlZlbIvUblMA0GCSqGSIb3DQEBBAUAA4ICAQCVHpzs3MQ9qj4XYznKAyip/wQE
9j0fPgdb6y4iO0UOK9jpmKjIl+YuV0TwdwFnybzrwIm8/U7XOkLyslIoeVD7GF9U
V1dTzdlhXEgLJR3upZNew/TLZVhTQrKor8jMrMkpGWFCg6ct7yqrhVxIGXqDA5z9
E+3UK+nqa27BZZ7bGUA4tV6/ZPEtfnN/r/fyy9oaKfZvlqIkoVIC70K5U/NpSWcD
V3+SzxN0ENwiJXGnN3wx2Ku6JYJo7Pojkkr46qct4fydw+WpLstFvpVpbQ2yMayp
VKQCehkV5Qv1Gdi7nT3pZIDy9+PcQAKgttCWrXt2LkM1UXPuQwjyEZgaKWbnv6cB
ryDlnfB5tyZVTlCgdrIeoe9hfyAtDI4hyxLHQJ6rIT4WVgxX6lfddYvw6QZXOdze
99Dhh0kG0ZtgOjrhjsM8/WXXRfy1iJ9OuNVdWijJHl+U7BziFWCSFBgVH7LAW98v
vd/uyr5MiGiuRy3g1QwdnvvVAMBonzGecWfJLTuBqSm5nJ9iRaB+O0jGm2V8I0rX
XOtygCbjxXtCiWKU0jFIGl6KBfdRJ3kfSHiOXvM7V/2zs9lBxlig2PJWY9LnJ9v8
9f3KSN/hHAZEPvTiy354jjsvIKgWFXersjFCrgb0wvrjocdNz1jQ9a1YAw4IPYbP
TJS1vyHXS0vcK+1DjQ==
-----END CERTIFICATE-----
